; Function Attrs: nounwind uwtable
define internal ptr @test_PyDateTime_DATE_GET(ptr readnone captures(none) %0, ptr noundef readonly captures(none) %1) #0 {
  %3 = getelementptr i8, ptr %1, i64 29
  %4 = load i8, ptr %3, align 1, !tbaa !3
  %5 = getelementptr i8, ptr %1, i64 30
  %6 = load i8, ptr %5, align 1, !tbaa !3
  %7 = getelementptr i8, ptr %1, i64 31
  %8 = load i8, ptr %7, align 1, !tbaa !3
  %9 = getelementptr i8, ptr %1, i64 32
  %10 = load i8, ptr %9, align 1, !tbaa !3
  %11 = getelementptr i8, ptr %1, i64 33
  %12 = load i8, ptr %11, align 1, !tbaa !3
  %13 = getelementptr i8, ptr %1, i64 34
  %14 = load i8, ptr %13, align 1, !tbaa !3
  %15 = getelementptr inbounds nuw i8, ptr %1, i64 24
  %16 = load i8, ptr %15, align 8, !tbaa !6
  %.not = icmp eq i8 %16, 0
  br i1 %.not, label %20, label %17

17:                                               ; preds = %2
  %18 = getelementptr inbounds nuw i8, ptr %1, i64 40
  %19 = load ptr, ptr %18, align 8, !tbaa !12
  br label %20

20:                                               ; preds = %2, %17
  %21 = phi ptr [ %19, %17 ], [ @_Py_NoneStruct, %2 ]
  %22 = zext i8 %10 to i32
  %23 = shl nuw nsw i32 %22, 16
  %24 = zext i8 %12 to i32
  %25 = shl nuw nsw i32 %24, 8
  %26 = or disjoint i32 %25, %23
  %27 = zext i8 %14 to i32
  %28 = or disjoint i32 %26, %27
  %29 = zext i8 %8 to i32
  %30 = zext i8 %6 to i32
  %31 = zext i8 %4 to i32
  %32 = tail call ptr (ptr, ...) @Py_BuildValue(ptr noundef nonnull @.str.22, i32 noundef %31, i32 noundef %30, i32 noundef %29, i32 noundef %28, ptr noundef %21) #4
  ret ptr %32
}